target datalayout = "e-m:e-p270:32:32-p271:32:32-p272:64:64-i64:64-i128:128-f80:128-n8:16:32:64-S128"
target triple = "x86_64-pc-linux-gnu"

%struct.AVCodecContext = type { ptr, i32, i32, ptr, i32, i32, ptr, ptr, ptr, i64, i32, i32, ptr, i32, %struct.AVRational, %struct.AVRational, %struct.AVRational, i32, i32, i32, i32, i32, %struct.AVRational, i32, i32, i32, i32, i32, i32, i32, i32, i32, i32, i32, ptr, ptr, i32, float, float, float, float, float, float, float, float, float, i32, i32, i32, i32, i32, i32, i32, i32, i32, i32, i32, i32, ptr, ptr, ptr, i32, i32, i32, i32, i32, i32, i32, i32, i32, i32, %struct.AVChannelLayout, i32, i32, i32, i32, i32, i32, i32, i32, ptr, i32, i32, i32, float, float, i32, i32, i32, i32, i32, ptr, i64, i64, float, float, i32, i32, ptr, ptr, i32, i32, i32, i32, i32, ptr, ptr, ptr, ptr, i32, i32, [8 x i64], i32, i32, i32, i32, i32, i32, i32, ptr, ptr, i32, i32, i32, i32, i32, i32, i32, i32, i32, i32, ptr, ptr, i32, i32, ptr, ptr, ptr, ptr, i32, i32, i64, i32, i32, i64, ptr, i64, ptr, i32, ptr, i32 }
%struct.AVRational = type { i32, i32 }
%struct.AVChannelLayout = type { i32, i32, %union.anon.0, ptr }
%union.anon.0 = type { i64 }

; Function Attrs: cold nounwind optsize uwtable
define internal i32 @encode_init(ptr noundef %0) #0 {
  %2 = alloca ptr, align 8
  %3 = alloca i32, align 4
  store ptr %0, ptr %2, align 8, !tbaa !4
  call void @llvm.lifetime.start.p0(i64 4, ptr %3) #8
  %4 = load ptr, ptr %2, align 8, !tbaa !4
  %5 = getelementptr inbounds nuw %struct.AVCodecContext, ptr %4, i32 0, i32 18
  %6 = load i32, ptr %5, align 8, !tbaa !9
  %7 = load ptr, ptr %2, align 8, !tbaa !4
  %8 = getelementptr inbounds nuw %struct.AVCodecContext, ptr %7, i32 0, i32 4
  %9 = load i32, ptr %8, align 8, !tbaa !29
  %10 = icmp eq i32 %9, 144
  %11 = select i1 %10, i32 1, i32 64
  %12 = add nsw i32 %6, %11
  %13 = sub nsw i32 %12, 1
  %14 = load ptr, ptr %2, align 8, !tbaa !4
  %15 = getelementptr inbounds nuw %struct.AVCodecContext, ptr %14, i32 0, i32 4
  %16 = load i32, ptr %15, align 8, !tbaa !29
  %17 = icmp eq i32 %16, 144
  %18 = select i1 %17, i32 1, i32 64
  %19 = sub nsw i32 %18, 1
  %20 = xor i32 %19, -1
  %21 = and i32 %13, %20
  store i32 %21, ptr %3, align 4, !tbaa !30
  %22 = load ptr, ptr %2, align 8, !tbaa !4
  %23 = getelementptr inbounds nuw %struct.AVCodecContext, ptr %22, i32 0, i32 114
  store i32 32, ptr %23, align 8, !tbaa !31
  %24 = load ptr, ptr %2, align 8, !tbaa !4
  %25 = getelementptr inbounds nuw %struct.AVCodecContext, ptr %24, i32 0, i32 18
  %26 = load i32, ptr %25, align 8, !tbaa !9
  %27 = icmp sgt i32 %26, 0
  br i1 %27, label %28, label %40

28:                                               ; preds = %1
  %29 = load ptr, ptr %2, align 8, !tbaa !4
  %30 = call i64 @ff_guess_coded_bitrate(ptr noundef %29)
  %31 = load i32, ptr %3, align 4, !tbaa !30
  %32 = sext i32 %31 to i64
  %33 = load ptr, ptr %2, align 8, !tbaa !4
  %34 = getelementptr inbounds nuw %struct.AVCodecContext, ptr %33, i32 0, i32 18
  %35 = load i32, ptr %34, align 8, !tbaa !9
  %36 = sext i32 %35 to i64
  %37 = call i64 @av_rescale(i64 noundef %30, i64 noundef %32, i64 noundef %36) #9
  %38 = load ptr, ptr %2, align 8, !tbaa !4
  %39 = getelementptr inbounds nuw %struct.AVCodecContext, ptr %38, i32 0, i32 9
  store i64 %37, ptr %39, align 8, !tbaa !32
  br label %40

40:                                               ; preds = %28, %1
  call void @llvm.lifetime.end.p0(i64 4, ptr %3) #8
  ret i32 0
}