; Function Attrs: cold nounwind optsize uwtable
define internal noundef i32 @encode_init(ptr noundef initializes((648, 652)) %0) #0 {
  %2 = getelementptr inbounds nuw i8, ptr %0, i64 112
  %3 = load i32, ptr %2, align 8, !tbaa !4
  %4 = getelementptr inbounds nuw i8, ptr %0, i64 24
  %5 = load i32, ptr %4, align 8, !tbaa !27
  %6 = getelementptr inbounds nuw i8, ptr %0, i64 648
  store i32 32, ptr %6, align 8, !tbaa !28
  %7 = icmp sgt i32 %3, 0
  br i1 %7, label %8, label %20

8:                                                ; preds = %1
  %9 = icmp eq i32 %5, 144
  %10 = select i1 %9, i32 1, i32 64
  %11 = add nsw i32 %3, -1
  %12 = add nuw i32 %11, %10
  %.neg = select i1 %9, i32 -1, i32 -64
  %13 = and i32 %12, %.neg
  %14 = tail call i64 @ff_guess_coded_bitrate(ptr noundef nonnull %0) #6
  %15 = zext nneg i32 %13 to i64
  %16 = load i32, ptr %2, align 8, !tbaa !4
  %17 = sext i32 %16 to i64
  %18 = tail call i64 @av_rescale(i64 noundef %14, i64 noundef %15, i64 noundef %17) #7
  %19 = getelementptr inbounds nuw i8, ptr %0, i64 56
  store i64 %18, ptr %19, align 8, !tbaa !29
  br label %20

20:                                               ; preds = %8, %1
  ret i32 0
}